target datalayout = "e-m:e-p270:32:32-p271:32:32-p272:64:64-i64:64-i128:128-f80:128-n8:16:32:64-S128"
target triple = "x86_64-pc-linux-gnu"

@.str.4 = private unnamed_addr constant [7 x i8] c"mov\09fp\00", align 1
@.str.5 = private unnamed_addr constant [34 x i8] c"objc_retainAutoreleaseReturnValue\00", align 1
@.str.6 = private unnamed_addr constant [9 x i8] c"# marker\00", align 1
@.str.7 = private unnamed_addr constant [2 x i8] c";\00", align 1

; Function Attrs: mustprogress nounwind uwtable
define dso_local void @_ZN4llvm22UpgradeInlineAsmStringEPNSt7__cxx1112basic_stringIcSt11char_traitsIcESaIcEEE(ptr noundef %0) #1 {
  %2 = alloca ptr, align 8
  %3 = alloca i64, align 8
  store ptr %0, ptr %2, align 8
  %4 = load ptr, ptr %2, align 8
  %5 = call noundef i64 @_ZNKSt7__cxx1112basic_stringIcSt11char_traitsIcESaIcEE4findEPKcm(ptr noundef nonnull align 8 dereferenceable(32) %4, ptr noundef @.str.4, i64 noundef 0) #2
  %6 = icmp eq i64 %5, 0
  br i1 %6, label %7, label %19

7:                                                ; preds = %1
  %8 = load ptr, ptr %2, align 8
  %9 = call noundef i64 @_ZNKSt7__cxx1112basic_stringIcSt11char_traitsIcESaIcEE4findEPKcm(ptr noundef nonnull align 8 dereferenceable(32) %8, ptr noundef @.str.5, i64 noundef 0) #2
  %10 = icmp ne i64 %9, -1
  br i1 %10, label %11, label %19

11:                                               ; preds = %7
  %12 = load ptr, ptr %2, align 8
  %13 = call noundef i64 @_ZNKSt7__cxx1112basic_stringIcSt11char_traitsIcESaIcEE4findEPKcm(ptr noundef nonnull align 8 dereferenceable(32) %12, ptr noundef @.str.6, i64 noundef 0) #2
  store i64 %13, ptr %3, align 8
  %14 = icmp ne i64 %13, -1
  br i1 %14, label %15, label %19

15:                                               ; preds = %11
  %16 = load ptr, ptr %2, align 8
  %17 = load i64, ptr %3, align 8
  %18 = call noundef nonnull align 8 dereferenceable(32) ptr @_ZNSt7__cxx1112basic_stringIcSt11char_traitsIcESaIcEE7replaceEmmPKc(ptr noundef nonnull align 8 dereferenceable(32) %16, i64 noundef %17, i64 noundef 1, ptr noundef @.str.7)
  br label %19

19:                                               ; preds = %15, %11, %7, %1
  ret void
}