; Function Attrs: mustprogress nounwind uwtable
define dso_local void @_ZN4llvm22UpgradeInlineAsmStringEPNSt7__cxx1112basic_stringIcSt11char_traitsIcESaIcEEE(ptr noundef nonnull %0) local_unnamed_addr #0 {
  %2 = tail call noundef i64 @_ZNKSt7__cxx1112basic_stringIcSt11char_traitsIcESaIcEE4findEPKcm(ptr noundef nonnull align 8 dereferenceable(32) %0, ptr noundef nonnull @.str.4, i64 noundef 0) #20
  %3 = icmp eq i64 %2, 0
  br i1 %3, label %4, label %10

4:                                                ; preds = %1
  %5 = tail call noundef i64 @_ZNKSt7__cxx1112basic_stringIcSt11char_traitsIcESaIcEE4findEPKcm(ptr noundef nonnull align 8 dereferenceable(32) %0, ptr noundef nonnull @.str.5, i64 noundef 0) #20
  %.not = icmp eq i64 %5, -1
  br i1 %.not, label %10, label %6

6:                                                ; preds = %4
  %7 = tail call noundef i64 @_ZNKSt7__cxx1112basic_stringIcSt11char_traitsIcESaIcEE4findEPKcm(ptr noundef nonnull align 8 dereferenceable(32) %0, ptr noundef nonnull @.str.6, i64 noundef 0) #20
  %.not4 = icmp eq i64 %7, -1
  br i1 %.not4, label %10, label %8

8:                                                ; preds = %6
  %9 = tail call noundef nonnull align 8 dereferenceable(32) ptr @_ZNSt7__cxx1112basic_stringIcSt11char_traitsIcESaIcEE7replaceEmmPKc(ptr noundef nonnull align 8 dereferenceable(32) %0, i64 noundef %7, i64 noundef 1, ptr noundef nonnull @.str.7) #20
  br label %10

10:                                               ; preds = %8, %6, %4, %1
  ret void
}